; Function Attrs: mustprogress nounwind uwtable
define dso_local void @_ZN4llvm10DwarfDebug31emitStringOffsetsTableHeaderDWOEv(ptr noundef nonnull align 8 dereferenceable(5828) %0) local_unnamed_addr #0 align 2 {
  %2 = getelementptr inbounds nuw i8, ptr %0, i64 3088
  %3 = getelementptr inbounds nuw i8, ptr %0, i64 8
  %4 = load ptr, ptr %3, align 8
  %5 = tail call noundef nonnull align 8 dereferenceable(968) ptr @_ZNK4llvm10AsmPrinter18getObjFileLoweringEv(ptr noundef nonnull align 8 dereferenceable(785) %4) #27
  %6 = getelementptr inbounds nuw i8, ptr %5, i64 272
  %7 = load ptr, ptr %6, align 8
  %8 = getelementptr inbounds nuw i8, ptr %0, i64 3232
  %9 = load ptr, ptr %8, align 8
  tail call void @_ZN4llvm15DwarfStringPool28emitStringOffsetsTableHeaderERNS_10AsmPrinterEPNS_9MCSectionEPNS_8MCSymbolE(ptr noundef nonnull align 8 dereferenceable(61) %2, ptr noundef nonnull align 8 dereferenceable(785) %4, ptr noundef %7, ptr noundef %9) #27
  ret void
}